target datalayout = "e-m:e-p270:32:32-p271:32:32-p272:64:64-i64:64-i128:128-f80:128-n8:16:32:64-S128"
target triple = "x86_64-pc-linux-gnu"

%struct.darktable_t = type { %struct.dt_codepath_t, i32, i32, ptr, ptr, ptr, ptr, ptr, ptr, ptr, ptr, ptr, ptr, ptr, ptr, ptr, ptr, ptr, ptr, ptr, ptr, ptr, ptr, ptr, ptr, ptr, ptr, ptr, ptr, ptr, [64 x %struct.dt_pthread_mutex_t], %struct.dt_pthread_mutex_t, %struct.dt_pthread_mutex_t, %struct.dt_pthread_mutex_t, %struct.dt_pthread_mutex_t, %struct.dt_pthread_mutex_t, ptr, ptr, ptr, ptr, ptr, ptr, ptr, ptr, ptr, ptr, ptr, ptr, ptr, %struct.dt_lua_state_t, ptr, double, ptr, i32, [47 x i32], i32, i32, ptr, ptr, %struct.dt_sys_resources_t, %struct.dt_backthumb_t, %struct.dt_gimp_t }
%struct.dt_codepath_t = type { i8, [3 x i8] }
%struct.dt_pthread_mutex_t = type { %union.pthread_mutex_t }
%union.pthread_mutex_t = type { %struct.__pthread_mutex_s }
%struct.__pthread_mutex_s = type { i32, i32, i32, i32, i32, i16, i16, %struct.__pthread_internal_list }
%struct.__pthread_internal_list = type { ptr, ptr }
%struct.dt_lua_state_t = type { i32 }
%struct.dt_sys_resources_t = type { i64, i64, ptr, ptr, i32 }
%struct.dt_backthumb_t = type { double, double, i32, i32, i32, i32 }
%struct.dt_gimp_t = type { i32, ptr, ptr, i32, i32 }
%struct.dt_camera_shared_t = type { ptr }
%struct.dt_camera_import_t = type { %struct.dt_camera_shared_t, ptr, ptr, ptr, double, i32 }
%struct.dt_camctl_listener_t = type { ptr, ptr, ptr, ptr, ptr, ptr, ptr, ptr, ptr, ptr, ptr }

@darktable = external global %struct.darktable_t, align 8
@.str.18 = private unnamed_addr constant [38 x i8] c"starting to import images from camera\00", align 1
@.str.19 = private unnamed_addr constant [31 x i8] c"importing %d image from camera\00", align 1
@.str.20 = private unnamed_addr constant [32 x i8] c"importing %d images from camera\00", align 1
@.str.21 = private unnamed_addr constant [11 x i8] c"lighttable\00", align 1

; Function Attrs: nounwind uwtable
define internal i32 @dt_camera_import_job_run(ptr noundef %0) #0 {
  %2 = alloca ptr, align 8
  %3 = alloca ptr, align 8
  %4 = alloca i32, align 4
  %5 = alloca [512 x i8], align 16
  %6 = alloca %struct.dt_camctl_listener_t, align 8
  store ptr %0, ptr %2, align 8, !tbaa !13
  call void @llvm.lifetime.start.p0(i64 8, ptr %3) #7
  %7 = load ptr, ptr %2, align 8, !tbaa !13
  %8 = call ptr @dt_control_job_get_params(ptr noundef %7)
  store ptr %8, ptr %3, align 8, !tbaa !72
  %9 = call ptr @dcgettext(ptr noundef null, ptr noundef @.str.18, i32 noundef 5) #7
  call void (ptr, ...) @dt_control_log(ptr noundef %9)
  call void @llvm.lifetime.start.p0(i64 4, ptr %4) #7
  %10 = load ptr, ptr %3, align 8, !tbaa !72
  %11 = getelementptr inbounds nuw %struct.dt_camera_import_t, ptr %10, i32 0, i32 1
  %12 = load ptr, ptr %11, align 8, !tbaa !77
  %13 = call i32 @g_list_length(ptr noundef %12)
  store i32 %13, ptr %4, align 4, !tbaa !11
  call void @llvm.lifetime.start.p0(i64 512, ptr %5) #7
  call void @llvm.memset.p0.i64(ptr align 16 %5, i8 0, i64 512, i1 false)
  %14 = getelementptr inbounds [512 x i8], ptr %5, i64 0, i64 0
  %15 = load i32, ptr %4, align 4, !tbaa !11
  %16 = zext i32 %15 to i64
  %17 = call ptr @dcngettext(ptr noundef null, ptr noundef @.str.19, ptr noundef @.str.20, i64 noundef %16, i32 noundef 5) #7
  %18 = load i32, ptr %4, align 4, !tbaa !11
  %19 = call i32 (ptr, i64, ptr, ...) @snprintf(ptr noundef %14, i64 noundef 512, ptr noundef %17, i32 noundef %18) #7
  %20 = load ptr, ptr %2, align 8, !tbaa !13
  %21 = getelementptr inbounds [512 x i8], ptr %5, i64 0, i64 0
  call void @dt_control_job_set_progress_message(ptr noundef %20, ptr noundef %21)
  %22 = load ptr, ptr %3, align 8, !tbaa !72
  %23 = getelementptr inbounds nuw %struct.dt_camera_import_t, ptr %22, i32 0, i32 0
  %24 = getelementptr inbounds nuw %struct.dt_camera_shared_t, ptr %23, i32 0, i32 0
  %25 = load ptr, ptr %24, align 8, !tbaa !74
  %26 = call i32 @dt_import_session_film_id(ptr noundef %25)
  %27 = call i32 @dt_film_open(i32 noundef %26)
  call void @dt_ctl_switch_mode_to(ptr noundef @.str.21)
  call void @llvm.lifetime.start.p0(i64 88, ptr %6) #7
  call void @llvm.memset.p0.i64(ptr align 8 %6, i8 0, i64 88, i1 false)
  %28 = load ptr, ptr %3, align 8, !tbaa !72
  %29 = getelementptr inbounds nuw %struct.dt_camctl_listener_t, ptr %6, i32 0, i32 0
  store ptr %28, ptr %29, align 8, !tbaa !93
  %30 = getelementptr inbounds nuw %struct.dt_camctl_listener_t, ptr %6, i32 0, i32 4
  store ptr @_camera_import_image_downloaded, ptr %30, align 8, !tbaa !95
  %31 = getelementptr inbounds nuw %struct.dt_camctl_listener_t, ptr %6, i32 0, i32 2
  store ptr @_camera_request_image_path, ptr %31, align 8, !tbaa !96
  %32 = getelementptr inbounds nuw %struct.dt_camctl_listener_t, ptr %6, i32 0, i32 3
  store ptr @_camera_request_image_filename, ptr %32, align 8, !tbaa !97
  %33 = load ptr, ptr getelementptr inbounds nuw (%struct.darktable_t, ptr @darktable, i32 0, i32 20), align 8, !tbaa !27
  call void @dt_camctl_register_listener(ptr noundef %33, ptr noundef %6)
  %34 = load ptr, ptr getelementptr inbounds nuw (%struct.darktable_t, ptr @darktable, i32 0, i32 20), align 8, !tbaa !27
  %35 = load ptr, ptr %3, align 8, !tbaa !72
  %36 = getelementptr inbounds nuw %struct.dt_camera_import_t, ptr %35, i32 0, i32 2
  %37 = load ptr, ptr %36, align 8, !tbaa !92
  %38 = load ptr, ptr %3, align 8, !tbaa !72
  %39 = getelementptr inbounds nuw %struct.dt_camera_import_t, ptr %38, i32 0, i32 1
  %40 = load ptr, ptr %39, align 8, !tbaa !77
  call void @dt_camctl_import(ptr noundef %34, ptr noundef %37, ptr noundef %40)
  %41 = load ptr, ptr getelementptr inbounds nuw (%struct.darktable_t, ptr @darktable, i32 0, i32 20), align 8, !tbaa !27
  call void @dt_camctl_unregister_listener(ptr noundef %41, ptr noundef %6)
  call void (...) @dt_ui_notify_user()
  call void @llvm.lifetime.end.p0(i64 88, ptr %6) #7
  call void @llvm.lifetime.end.p0(i64 512, ptr %5) #7
  call void @llvm.lifetime.end.p0(i64 4, ptr %4) #7
  call void @llvm.lifetime.end.p0(i64 8, ptr %3) #7
  ret i32 0
}