; Function Attrs: nounwind uwtable
define internal noundef i32 @dt_camera_import_job_run(ptr noundef %0) #0 {
  %2 = alloca [512 x i8], align 16
  %3 = alloca %struct.dt_camctl_listener_t, align 8
  %4 = tail call ptr @dt_control_job_get_params(ptr noundef %0) #10
  %5 = tail call ptr @dcgettext(ptr noundef null, ptr noundef nonnull @.str.18, i32 noundef 5) #10
  tail call void (ptr, ...) @dt_control_log(ptr noundef %5) #10
  %6 = getelementptr inbounds nuw i8, ptr %4, i64 8
  %7 = load ptr, ptr %6, align 8, !tbaa !66
  %8 = tail call i32 @g_list_length(ptr noundef %7) #10
  call void @llvm.lifetime.start.p0(i64 512, ptr nonnull %2) #10
  call void @llvm.memset.p0.i64(ptr noundef nonnull align 16 dereferenceable(512) %2, i8 0, i64 512, i1 false)
  %9 = zext i32 %8 to i64
  %10 = tail call ptr @dcngettext(ptr noundef null, ptr noundef nonnull @.str.19, ptr noundef nonnull @.str.20, i64 noundef %9, i32 noundef 5) #10
  %11 = call i32 (ptr, i64, ptr, ...) @snprintf(ptr noundef nonnull dereferenceable(1) %2, i64 noundef 512, ptr noundef %10, i32 noundef %8) #10
  call void @dt_control_job_set_progress_message(ptr noundef %0, ptr noundef nonnull %2) #10
  %12 = load ptr, ptr %4, align 8, !tbaa !61
  %13 = call i32 @dt_import_session_film_id(ptr noundef %12) #10
  %14 = call i32 @dt_film_open(i32 noundef %13) #10
  call void @dt_ctl_switch_mode_to(ptr noundef nonnull @.str.21) #10
  call void @llvm.lifetime.start.p0(i64 88, ptr nonnull %3) #10
  %15 = getelementptr inbounds nuw i8, ptr %3, i64 8
  call void @llvm.memset.p0.i64(ptr noundef nonnull align 8 dereferenceable(88) %15, i8 0, i64 80, i1 false)
  store ptr %4, ptr %3, align 8, !tbaa !82
  %16 = getelementptr inbounds nuw i8, ptr %3, i64 32
  store ptr @_camera_import_image_downloaded, ptr %16, align 8, !tbaa !84
  %17 = getelementptr inbounds nuw i8, ptr %3, i64 16
  store ptr @_camera_request_image_path, ptr %17, align 8, !tbaa !85
  %18 = getelementptr inbounds nuw i8, ptr %3, i64 24
  store ptr @_camera_request_image_filename, ptr %18, align 8, !tbaa !86
  %19 = load ptr, ptr getelementptr inbounds nuw (i8, ptr @darktable, i64 152), align 8, !tbaa !18
  call void @dt_camctl_register_listener(ptr noundef %19, ptr noundef nonnull %3) #10
  %20 = load ptr, ptr getelementptr inbounds nuw (i8, ptr @darktable, i64 152), align 8, !tbaa !18
  %21 = getelementptr inbounds nuw i8, ptr %4, i64 16
  %22 = load ptr, ptr %21, align 8, !tbaa !81
  %23 = load ptr, ptr %6, align 8, !tbaa !66
  call void @dt_camctl_import(ptr noundef %20, ptr noundef %22, ptr noundef %23) #10
  %24 = load ptr, ptr getelementptr inbounds nuw (i8, ptr @darktable, i64 152), align 8, !tbaa !18
  call void @dt_camctl_unregister_listener(ptr noundef %24, ptr noundef nonnull %3) #10
  call void (...) @dt_ui_notify_user() #10
  call void @llvm.lifetime.end.p0(i64 88, ptr nonnull %3) #10
  call void @llvm.lifetime.end.p0(i64 512, ptr nonnull %2) #10
  ret i32 0
}